target datalayout = "e-m:e-p270:32:32-p271:32:32-p272:64:64-i64:64-i128:128-f80:128-n8:16:32:64-S128"
target triple = "x86_64-pc-linux-gnu"

@.str = private unnamed_addr constant [35 x i8] c"invalid system attribute number %d\00", align 1
@.str.1 = private unnamed_addr constant [7 x i8] c"heap.c\00", align 1
@__func__.SystemAttributeDefinition = private unnamed_addr constant [26 x i8] c"SystemAttributeDefinition\00", align 1
@SysAtt = internal constant [6 x ptr] [ptr @a1, ptr @a2, ptr @a3, ptr @a4, ptr @a5, ptr @a6], align 16

; Function Attrs: nounwind uwtable
define dso_local ptr @SystemAttributeDefinition(i16 noundef signext %0) #0 {
  %2 = alloca i16, align 2
  store i16 %0, ptr %2, align 2
  %3 = load i16, ptr %2, align 2
  %4 = sext i16 %3 to i32
  %5 = icmp sge i32 %4, 0
  br i1 %5, label %10, label %6

6:                                                ; preds = %1
  %7 = load i16, ptr %2, align 2
  %8 = sext i16 %7 to i32
  %9 = icmp slt i32 %8, -6
  br i1 %9, label %10, label %22

10:                                               ; preds = %6, %1
  br label %11

11:                                               ; preds = %10
  br i1 true, label %12, label %14

12:                                               ; preds = %11
  %13 = call zeroext i1 @errstart_cold(i32 noundef 21, ptr noundef null) #9
  br i1 %13, label %16, label %20

14:                                               ; preds = %11
  %15 = call zeroext i1 @errstart(i32 noundef 21, ptr noundef null)
  br i1 %15, label %16, label %20

16:                                               ; preds = %14, %12
  %17 = load i16, ptr %2, align 2
  %18 = sext i16 %17 to i32
  %19 = call i32 (ptr, ...) @errmsg_internal(ptr noundef @.str, i32 noundef %18)
  call void @errfinish(ptr noundef @.str.1, i32 noundef 238, ptr noundef @__func__.SystemAttributeDefinition)
  br label %20

20:                                               ; preds = %16, %14, %12
  unreachable

21:                                               ; No predecessors!
  br label %22

22:                                               ; preds = %21, %6
  %23 = load i16, ptr %2, align 2
  %24 = sext i16 %23 to i32
  %25 = sub i32 0, %24
  %26 = sub i32 %25, 1
  %27 = sext i32 %26 to i64
  %28 = getelementptr inbounds [6 x ptr], ptr @SysAtt, i64 0, i64 %27
  %29 = load ptr, ptr %28, align 8
  ret ptr %29
}