; Function Attrs: nounwind uwtable
define dso_local ptr @SystemAttributeDefinition(i16 noundef signext %0) local_unnamed_addr #0 {
  %2 = sext i16 %0 to i32
  %or.cond = icmp ult i16 %0, -6
  br i1 %or.cond, label %3, label %6

3:                                                ; preds = %1
  %4 = tail call zeroext i1 @errstart_cold(i32 noundef 21, ptr noundef null) #10
  tail call void @llvm.assume(i1 %4)
  %5 = tail call i32 (ptr, ...) @errmsg_internal(ptr noundef nonnull @.str, i32 noundef %2) #11
  tail call void @errfinish(ptr noundef nonnull @.str.1, i32 noundef 238, ptr noundef nonnull @__func__.SystemAttributeDefinition) #11
  unreachable

6:                                                ; preds = %1
  %7 = xor i32 %2, -1
  %8 = zext nneg i32 %7 to i64
  %9 = getelementptr inbounds nuw [6 x ptr], ptr @SysAtt, i64 0, i64 %8
  %10 = load ptr, ptr %9, align 8
  ret ptr %10
}